target datalayout = "e-m:e-p270:32:32-p271:32:32-p272:64:64-i64:64-i128:128-f80:128-n8:16:32:64-S128"
target triple = "x86_64-pc-linux-gnu"

; Function Attrs: nounwind uwtable
define internal i32 @identity_line_16bit(ptr noundef %0, ptr noundef %1, i32 noundef %2) #0 {
  %4 = alloca ptr, align 8
  %5 = alloca ptr, align 8
  %6 = alloca i32, align 4
  %7 = alloca ptr, align 8
  %8 = alloca ptr, align 8
  %9 = alloca i32, align 4
  %10 = alloca i32, align 4
  store ptr %0, ptr %4, align 8, !tbaa !83
  store ptr %1, ptr %5, align 8, !tbaa !83
  store i32 %2, ptr %6, align 4, !tbaa !34
  call void @llvm.lifetime.start.p0(i64 8, ptr %7) #10
  %11 = load ptr, ptr %4, align 8, !tbaa !83
  store ptr %11, ptr %7, align 8, !tbaa !88
  call void @llvm.lifetime.start.p0(i64 8, ptr %8) #10
  %12 = load ptr, ptr %5, align 8, !tbaa !83
  store ptr %12, ptr %8, align 8, !tbaa !88
  call void @llvm.lifetime.start.p0(i64 4, ptr %9) #10
  store i32 0, ptr %9, align 4, !tbaa !34
  call void @llvm.lifetime.start.p0(i64 4, ptr %10) #10
  store i32 0, ptr %10, align 4, !tbaa !34
  br label %13

13:                                               ; preds = %35, %3
  %14 = load i32, ptr %10, align 4, !tbaa !34
  %15 = load i32, ptr %6, align 4, !tbaa !34
  %16 = icmp slt i32 %14, %15
  br i1 %16, label %18, label %17

17:                                               ; preds = %13
  call void @llvm.lifetime.end.p0(i64 4, ptr %10) #10
  br label %38

18:                                               ; preds = %13
  %19 = load ptr, ptr %7, align 8, !tbaa !88
  %20 = load i32, ptr %10, align 4, !tbaa !34
  %21 = sext i32 %20 to i64
  %22 = getelementptr inbounds i16, ptr %19, i64 %21
  %23 = load i16, ptr %22, align 2, !tbaa !90
  %24 = zext i16 %23 to i32
  %25 = load ptr, ptr %8, align 8, !tbaa !88
  %26 = load i32, ptr %10, align 4, !tbaa !34
  %27 = sext i32 %26 to i64
  %28 = getelementptr inbounds i16, ptr %25, i64 %27
  %29 = load i16, ptr %28, align 2, !tbaa !90
  %30 = zext i16 %29 to i32
  %31 = icmp eq i32 %24, %30
  %32 = zext i1 %31 to i32
  %33 = load i32, ptr %9, align 4, !tbaa !34
  %34 = add i32 %33, %32
  store i32 %34, ptr %9, align 4, !tbaa !34
  br label %35

35:                                               ; preds = %18
  %36 = load i32, ptr %10, align 4, !tbaa !34
  %37 = add nsw i32 %36, 1
  store i32 %37, ptr %10, align 4, !tbaa !34
  br label %13, !llvm.loop !92

38:                                               ; preds = %17
  %39 = load i32, ptr %9, align 4, !tbaa !34
  call void @llvm.lifetime.end.p0(i64 4, ptr %9) #10
  call void @llvm.lifetime.end.p0(i64 8, ptr %8) #10
  call void @llvm.lifetime.end.p0(i64 8, ptr %7) #10
  ret i32 %39
}